Certificate:
    Data:
        Version: 3 (0x2)
        Serial Number: 2 (0x2)
        Signature Algorithm: sha1WithRSAEncryption
        Issuer: DC=org, DC=simple, O=Simple Inc, OU=Simple Signing CA, CN=Simple Signing CA
        Validity
            Not Before: Dec  7 05:50:01 2020 GMT
            Not After : Dec  7 05:50:01 2022 GMT
        Subject: DC=org, DC=simple, O=Simple Inc, CN=www.simple.org
        Subject Public Key Info:
            Public Key Algorithm: rsaEncryption
                RSA Public-Key: (2048 bit)
                Modulus:
                    00:b2:d4:6a:2f:70:4c:4b:c4:bb:54:e2:e6:77:fa:
                    38:eb:f5:c9:b5:95:d7:a7:70:91:82:b6:54:40:e4:
                    cc:22:ee:7e:5c:05:3a:40:ff:07:80:44:82:22:2f:
                    b7:e9:6d:08:1b:4c:e5:51:fa:36:a4:a8:25:4b:a8:
                    7b:19:76:70:21:33:12:a1:48:8f:bf:d5:d7:07:a6:
                    ed:1b:f3:eb:5d:5d:96:bc:22:85:ba:6c:46:f0:15:
                    ff:82:ca:3a:78:4c:76:37:b8:7b:27:1d:3f:a7:f8:
                    72:6b:46:9a:de:d6:1d:26:eb:1f:9a:6a:c3:ec:b0:
                    98:e0:70:e8:73:1c:59:ff:8f:97:54:39:81:eb:27:
                    3c:44:8e:93:6f:4e:01:8e:99:ee:1b:90:bc:d8:ec:
                    bf:6d:d8:13:19:65:a1:70:eb:4a:af:9b:b3:cf:24:
                    75:74:60:e3:e4:2d:4e:21:53:e3:71:2b:24:74:95:
                    7a:50:00:69:73:71:56:32:a2:d8:c2:0d:95:d5:5a:
                    68:60:46:0a:02:64:9e:40:c3:d7:48:37:b4:d9:cd:
                    c7:8e:98:9f:d8:03:a6:aa:92:a2:1a:c5:e2:dd:41:
                    88:18:15:38:75:9e:80:bc:10:4c:95:54:ca:3d:89:
                    51:c2:de:c3:05:85:5b:56:f8:6c:e8:c5:ad:07:71:
                    be:a3
                Exponent: 65537 (0x10001)
        X509v3 extensions:
            X509v3 Key Usage: critical
                Digital Signature, Key Encipherment
            X509v3 Basic Constraints: 
                CA:FALSE
            X509v3 Extended Key Usage: 
                TLS Web Server Authentication, TLS Web Client Authentication
            X509v3 Subject Key Identifier: 
                C2:42:66:8E:78:4D:6D:A8:99:2E:2A:64:8D:6A:25:E8:32:B2:01:A4
            X509v3 Authority Key Identifier: 
                keyid:A4:60:B9:C6:F4:78:DE:4D:58:4D:C7:80:2E:00:BD:AB:45:8C:0C:A3

            X509v3 Subject Alternative Name: 
                DNS:www.simple.org
    Signature Algorithm: sha1WithRSAEncryption
         20:72:3a:54:92:56:e5:c9:fb:d0:2a:16:f9:ef:7b:6c:92:31:
         ef:19:0e:4d:88:ba:60:5c:68:44:ce:25:19:66:6f:5f:08:8d:
         47:81:7d:4c:23:d7:46:de:d6:67:83:0c:4d:3f:f6:d9:71:1e:
         75:da:29:86:74:e8:54:c2:29:ba:27:2b:78:f1:6d:3b:c7:f7:
         c4:e5:28:0c:e0:b9:08:04:4a:c2:1a:bf:94:ea:4b:7e:5b:d4:
         8b:5c:6e:9a:49:61:33:63:2e:13:8b:12:1d:e3:d0:4e:82:ae:
         2b:57:18:3f:d9:77:76:b3:01:70:fa:02:7d:48:00:b3:df:e6:
         88:f2:43:8a:11:57:65:61:39:24:3f:71:7f:5b:f3:ef:46:42:
         65:06:13:73:eb:23:76:da:d4:e1:35:59:35:79:fb:c5:6c:7a:
         5a:e7:f5:a2:35:f2:22:be:3b:45:a9:b2:53:63:fb:f4:34:9c:
         dc:26:73:a9:8b:f0:27:8a:a4:8e:90:bc:a9:e3:74:37:7c:ed:
         cb:0f:b1:3d:b1:ec:77:c3:ae:a5:3e:72:72:13:e3:56:8f:96:
         9e:d1:14:47:9f:4b:bb:69:7f:51:c9:7a:2d:bb:23:ec:fb:c8:
         70:28:d6:8d:3c:92:14:56:87:d1:71:b1:20:af:b9:2b:1c:73:
         31:09:ed:3b
-----BEGIN CERTIFICATE-----
MIID6TCCAtGgAwIBAgIBAjANBgkqhkiG9w0BAQUFADB6MRMwEQYKCZImiZPyLGQB
GRYDb3JnMRYwFAYKCZImiZPyLGQBGRYGc2ltcGxlMRMwEQYDVQQKDApTaW1wbGUg
SW5jMRowGAYDVQQLDBFTaW1wbGUgU2lnbmluZyBDQTEaMBgGA1UEAwwRU2ltcGxl
IFNpZ25pbmcgQ0EwHhcNMjAxMjA3MDU1MDAxWhcNMjIxMjA3MDU1MDAxWjBbMRMw
EQYKCZImiZPyLGQBGRYDb3JnMRYwFAYKCZImiZPyLGQBGRYGc2ltcGxlMRMwEQYD
VQQKDApTaW1wbGUgSW5jMRcwFQYDVQQDDA53d3cuc2ltcGxlLm9yZzCCASIwDQYJ
KoZIhvcNAQEBBQADggEPADCCAQoCggEBALLUai9wTEvEu1Ti5nf6OOv1ybWV16dw
kYK2VEDkzCLuflwFOkD/B4BEgiIvt+ltCBtM5VH6NqSoJUuoexl2cCEzEqFIj7/V
1wem7Rvz611dlrwihbpsRvAV/4LKOnhMdje4eycdP6f4cmtGmt7WHSbrH5pqw+yw
mOBw6HMcWf+Pl1Q5gesnPESOk29OAY6Z7huQvNjsv23YExlloXDrSq+bs88kdXRg
4+QtTiFT43ErJHSVelAAaXNxVjKi2MINldVaaGBGCgJknkDD10g3tNnNx46Yn9gD
pqqSohrF4t1BiBgVOHWegLwQTJVUyj2JUcLewwWFW1b4bOjFrQdxvqMCAwEAAaOB
mDCBlTAOBgNVHQ8BAf8EBAMCBaAwCQYDVR0TBAIwADAdBgNVHSUEFjAUBggrBgEF
BQcDAQYIKwYBBQUHAwIwHQYDVR0OBBYEFMJCZo54TW2omS4qZI1qJegysgGkMB8G
A1UdIwQYMBaAFKRgucb0eN5NWE3HgC4AvatFjAyjMBkGA1UdEQQSMBCCDnd3dy5z
aW1wbGUub3JnMA0GCSqGSIb3DQEBBQUAA4IBAQAgcjpUklblyfvQKhb573tskjHv
GQ5NiLpgXGhEziUZZm9fCI1HgX1MI9dG3tZngwxNP/bZcR512imGdOhUwim6Jyt4
8W07x/fE5SgM4LkIBErCGr+U6kt+W9SLXG6aSWEzYy4TixId49BOgq4rVxg/2Xd2
swFw+gJ9SACz3+aI8kOKEVdlYTkkP3F/W/PvRkJlBhNz6yN22tThNVk1efvFbHpa
5/WiNfIivjtFqbJTY/v0NJzcJnOpi/AniqSOkLyp43Q3fO3LD7E9sex3w66lPnJy
E+NWj5ae0RRHn0u7aX9RyXotuyPs+8hwKNaNPJIUVofRcbEgr7krHHMxCe07
-----END CERTIFICATE-----
