Certificate:
    Data:
        Version: 3 (0x2)
        Serial Number: 1 (0x1)
        Signature Algorithm: sha1WithRSAEncryption
        Issuer: DC=org, DC=simple, O=Simple Inc, OU=Simple Signing CA, CN=Simple Signing CA
        Validity
            Not Before: Dec  7 05:48:59 2020 GMT
            Not After : Dec  7 05:48:59 2022 GMT
        Subject: DC=org, DC=simple, O=Simple Inc, CN=Fred Flintstone
        Subject Public Key Info:
            Public Key Algorithm: rsaEncryption
                RSA Public-Key: (2048 bit)
                Modulus:
                    00:97:f0:d8:c5:4a:b7:d9:15:8b:1c:9a:85:52:94:
                    97:9c:69:24:85:74:c9:20:f4:f8:90:17:dc:ce:20:
                    a0:76:1b:d6:26:8e:09:5f:94:aa:5f:bc:1a:ed:ef:
                    7d:8c:e3:92:6e:55:19:ce:11:3b:26:1f:c5:06:d0:
                    68:43:c1:f5:71:6d:53:57:9a:90:9d:b6:91:fe:23:
                    57:95:d6:48:6c:f9:6c:a2:48:4f:ec:67:f9:2a:b7:
                    cf:18:a9:44:a0:4a:32:cf:d0:93:51:b3:43:af:82:
                    2c:4e:85:ec:d3:0d:4c:75:84:99:b7:22:7e:a0:b6:
                    df:da:a3:56:d6:d6:b4:df:52:95:91:de:23:16:23:
                    eb:8f:4b:f6:9b:6c:84:ca:6f:5f:8b:17:60:73:8a:
                    05:11:e4:74:c9:49:0c:4b:a3:47:84:44:d2:1e:b2:
                    92:6d:00:1b:bd:21:fd:84:a0:34:6b:14:0a:c2:a9:
                    fe:2f:9c:86:73:f9:19:f6:cd:88:3a:ab:a4:d1:3d:
                    47:20:31:d2:9f:c8:11:b3:80:9b:ed:50:8d:5f:24:
                    02:c4:a6:8f:2c:64:1b:c2:a8:c2:e4:b9:f6:79:cd:
                    34:ea:cf:6b:61:59:82:fa:41:bf:2c:5f:d3:32:ba:
                    b0:da:b7:fc:8e:13:0f:5b:e2:79:10:c9:6e:f4:03:
                    f8:2b
                Exponent: 65537 (0x10001)
        X509v3 extensions:
            X509v3 Key Usage: critical
                Digital Signature, Key Encipherment
            X509v3 Basic Constraints: 
                CA:FALSE
            X509v3 Extended Key Usage: 
                E-mail Protection, TLS Web Client Authentication
            X509v3 Subject Key Identifier: 
                F3:18:83:9C:4A:1D:CD:9C:00:EB:95:ED:D2:3A:21:2E:1A:D3:CD:89
            X509v3 Authority Key Identifier: 
                keyid:A4:60:B9:C6:F4:78:DE:4D:58:4D:C7:80:2E:00:BD:AB:45:8C:0C:A3

            X509v3 Subject Alternative Name: 
                email:fred@simple.org
    Signature Algorithm: sha1WithRSAEncryption
         52:96:ad:93:35:95:47:cd:61:76:69:99:e9:c5:2d:aa:f5:d8:
         06:8f:68:f5:5a:37:fe:60:7c:7a:aa:61:3f:1e:f4:83:d3:f5:
         87:fb:20:38:9f:78:24:72:9f:b4:eb:a1:59:7c:df:0e:ef:f9:
         3a:00:b9:37:63:06:92:c6:bd:fa:e5:9d:57:df:dc:60:16:a3:
         d7:e0:74:63:13:7d:ab:b0:18:72:8a:44:6a:8b:d6:27:b5:13:
         00:4a:bd:80:bd:26:c5:e6:48:51:e0:ca:90:ee:29:08:20:4f:
         57:bb:d5:d1:3c:19:7c:14:26:d2:72:fe:b5:8c:c6:63:a9:ba:
         64:ee:41:b0:0c:2c:3b:ac:6e:cc:97:a5:d8:ff:2d:19:7c:37:
         a8:94:2d:49:2c:9d:9d:c9:e5:6e:d5:8c:79:79:1d:74:18:43:
         32:11:eb:13:65:05:95:4e:ca:43:4d:2c:61:0a:21:31:ae:9e:
         b9:3e:41:fe:44:38:a3:d0:24:c9:e1:1e:4d:e3:51:3b:b6:eb:
         4a:2b:56:94:46:25:68:a6:50:9a:87:d0:26:14:35:24:fe:03:
         67:d2:4c:52:2b:e6:69:e0:1a:46:0e:79:a6:62:d0:c0:c2:82:
         d0:c8:b8:6b:52:23:d1:92:fb:ce:de:29:d8:35:48:cf:66:68:
         a3:74:fd:12
-----BEGIN CERTIFICATE-----
MIID6zCCAtOgAwIBAgIBATANBgkqhkiG9w0BAQUFADB6MRMwEQYKCZImiZPyLGQB
GRYDb3JnMRYwFAYKCZImiZPyLGQBGRYGc2ltcGxlMRMwEQYDVQQKDApTaW1wbGUg
SW5jMRowGAYDVQQLDBFTaW1wbGUgU2lnbmluZyBDQTEaMBgGA1UEAwwRU2ltcGxl
IFNpZ25pbmcgQ0EwHhcNMjAxMjA3MDU0ODU5WhcNMjIxMjA3MDU0ODU5WjBcMRMw
EQYKCZImiZPyLGQBGRYDb3JnMRYwFAYKCZImiZPyLGQBGRYGc2ltcGxlMRMwEQYD
VQQKDApTaW1wbGUgSW5jMRgwFgYDVQQDDA9GcmVkIEZsaW50c3RvbmUwggEiMA0G
CSqGSIb3DQEBAQUAA4IBDwAwggEKAoIBAQCX8NjFSrfZFYscmoVSlJecaSSFdMkg
9PiQF9zOIKB2G9YmjglflKpfvBrt732M45JuVRnOETsmH8UG0GhDwfVxbVNXmpCd
tpH+I1eV1khs+WyiSE/sZ/kqt88YqUSgSjLP0JNRs0OvgixOhezTDUx1hJm3In6g
tt/ao1bW1rTfUpWR3iMWI+uPS/abbITKb1+LF2BzigUR5HTJSQxLo0eERNIespJt
ABu9If2EoDRrFArCqf4vnIZz+Rn2zYg6q6TRPUcgMdKfyBGzgJvtUI1fJALEpo8s
ZBvCqMLkufZ5zTTqz2thWYL6Qb8sX9MyurDat/yOEw9b4nkQyW70A/grAgMBAAGj
gZkwgZYwDgYDVR0PAQH/BAQDAgWgMAkGA1UdEwQCMAAwHQYDVR0lBBYwFAYIKwYB
BQUHAwQGCCsGAQUFBwMCMB0GA1UdDgQWBBTzGIOcSh3NnADrle3SOiEuGtPNiTAf
BgNVHSMEGDAWgBSkYLnG9HjeTVhNx4AuAL2rRYwMozAaBgNVHREEEzARgQ9mcmVk
QHNpbXBsZS5vcmcwDQYJKoZIhvcNAQEFBQADggEBAFKWrZM1lUfNYXZpmenFLar1
2AaPaPVaN/5gfHqqYT8e9IPT9Yf7IDifeCRyn7TroVl83w7v+ToAuTdjBpLGvfrl
nVff3GAWo9fgdGMTfauwGHKKRGqL1ie1EwBKvYC9JsXmSFHgypDuKQggT1e71dE8
GXwUJtJy/rWMxmOpumTuQbAMLDusbsyXpdj/LRl8N6iULUksnZ3J5W7VjHl5HXQY
QzIR6xNlBZVOykNNLGEKITGunrk+Qf5EOKPQJMnhHk3jUTu260orVpRGJWimUJqH
0CYUNST+A2fSTFIr5mngGkYOeaZi0MDCgtDIuGtSI9GS+87eKdg1SM9maKN0/RI=
-----END CERTIFICATE-----
