Certificate:
    Data:
        Version: 3 (0x2)
        Serial Number: 2 (0x2)
        Signature Algorithm: sha1WithRSAEncryption
        Issuer: DC=org, DC=simple, O=Simple Inc, OU=Simple Root CA, CN=Simple Root CA
        Validity
            Not Before: Dec  7 05:45:48 2020 GMT
            Not After : Dec  7 05:45:48 2030 GMT
        Subject: DC=org, DC=simple, O=Simple Inc, OU=Simple Signing CA, CN=Simple Signing CA
        Subject Public Key Info:
            Public Key Algorithm: rsaEncryption
                RSA Public-Key: (2048 bit)
                Modulus:
                    00:b7:15:9c:cf:61:32:e5:b0:00:a1:05:24:57:f6:
                    b8:fd:51:e1:a6:a0:a2:2b:a1:28:4a:d6:e3:be:d3:
                    38:37:e3:bd:4a:e0:f9:60:fc:b9:b2:d5:50:dc:ab:
                    16:32:51:02:8f:56:81:84:1a:72:0c:83:33:b2:09:
                    b0:0b:1e:4f:ca:cf:8f:c0:83:76:3a:6f:85:09:ae:
                    89:31:62:e7:45:2f:82:a6:87:2e:23:13:36:84:b7:
                    f1:aa:2f:7a:30:59:f0:4a:74:f9:91:2f:7f:8a:12:
                    fa:e5:92:ab:20:67:ab:95:ae:db:b3:e9:2a:45:1e:
                    76:2d:fd:4f:05:59:1b:ad:24:fe:98:06:a5:6b:dd:
                    71:14:5d:33:60:68:17:ef:2d:8e:ad:67:22:04:d2:
                    53:9d:df:a9:49:4b:cf:d5:a4:d7:90:36:1b:94:c8:
                    fc:75:93:b2:ac:aa:3d:f7:b7:e4:23:e5:05:fd:60:
                    5a:ff:73:15:5c:78:58:2e:f3:ac:02:f6:dd:6e:b0:
                    d5:4a:b2:9f:ea:91:48:15:a8:48:dc:c3:24:79:7e:
                    73:0a:06:89:85:6e:28:5f:6a:05:72:d1:3d:22:f7:
                    bf:2c:ce:c3:c8:7c:0d:c7:bb:07:81:30:1d:e2:94:
                    9d:3e:c7:3e:30:a8:f0:2f:a7:be:28:28:29:4b:1d:
                    97:b7
                Exponent: 65537 (0x10001)
        X509v3 extensions:
            X509v3 Key Usage: critical
                Certificate Sign, CRL Sign
            X509v3 Basic Constraints: critical
                CA:TRUE, pathlen:0
            X509v3 Subject Key Identifier: 
                A4:60:B9:C6:F4:78:DE:4D:58:4D:C7:80:2E:00:BD:AB:45:8C:0C:A3
            X509v3 Authority Key Identifier: 
                keyid:BE:58:81:B2:DF:6A:D0:50:BA:24:D0:89:E5:99:CE:87:FF:F9:EC:E3

    Signature Algorithm: sha1WithRSAEncryption
         42:a7:35:37:a3:f8:c1:6d:62:83:b1:4c:0e:3b:61:a8:41:48:
         30:42:ef:a0:06:fc:17:af:ee:8b:af:2b:97:03:06:80:e1:1b:
         fc:42:39:95:40:df:23:88:97:3b:b7:bd:b7:78:ff:7d:52:8d:
         bb:08:24:93:a7:b5:88:2b:c2:9c:45:24:c0:ef:84:e6:6e:4b:
         b3:13:fa:36:44:08:da:04:93:9f:6a:80:c7:eb:d4:8a:7a:e1:
         5e:29:46:e0:3b:9b:73:80:11:ed:fb:81:99:ca:67:8d:65:46:
         68:e9:38:a5:68:18:b4:df:99:28:11:f0:cd:70:05:16:fc:3c:
         c3:d0:70:99:c6:ee:ac:6f:61:e7:f5:4f:af:bc:b6:8b:f0:5f:
         0e:92:2f:28:61:aa:9c:14:94:8c:f0:88:74:3c:37:d1:d4:d4:
         69:40:35:59:59:c7:71:39:c8:1b:ed:91:e8:4e:23:6b:ec:f8:
         c9:d6:1f:f2:ed:33:3d:93:4c:c5:d6:99:19:0f:3a:5b:86:3d:
         9c:8f:f2:1f:89:b7:1e:03:9c:74:3a:10:e2:94:d8:72:63:7e:
         f5:4b:66:5d:1a:79:3b:a0:3e:b3:79:f4:2d:d0:df:4b:b7:fb:
         7d:57:c8:29:bb:3e:d6:56:12:c1:34:3c:d7:07:b4:f7:2e:cf:
         0b:63:a9:1c
-----BEGIN CERTIFICATE-----
MIIDzzCCAregAwIBAgIBAjANBgkqhkiG9w0BAQUFADB0MRMwEQYKCZImiZPyLGQB
GRYDb3JnMRYwFAYKCZImiZPyLGQBGRYGc2ltcGxlMRMwEQYDVQQKDApTaW1wbGUg
SW5jMRcwFQYDVQQLDA5TaW1wbGUgUm9vdCBDQTEXMBUGA1UEAwwOU2ltcGxlIFJv
b3QgQ0EwHhcNMjAxMjA3MDU0NTQ4WhcNMzAxMjA3MDU0NTQ4WjB6MRMwEQYKCZIm
iZPyLGQBGRYDb3JnMRYwFAYKCZImiZPyLGQBGRYGc2ltcGxlMRMwEQYDVQQKDApT
aW1wbGUgSW5jMRowGAYDVQQLDBFTaW1wbGUgU2lnbmluZyBDQTEaMBgGA1UEAwwR
U2ltcGxlIFNpZ25pbmcgQ0EwggEiMA0GCSqGSIb3DQEBAQUAA4IBDwAwggEKAoIB
AQC3FZzPYTLlsAChBSRX9rj9UeGmoKIroShK1uO+0zg3471K4Plg/Lmy1VDcqxYy
UQKPVoGEGnIMgzOyCbALHk/Kz4/Ag3Y6b4UJrokxYudFL4Kmhy4jEzaEt/GqL3ow
WfBKdPmRL3+KEvrlkqsgZ6uVrtuz6SpFHnYt/U8FWRutJP6YBqVr3XEUXTNgaBfv
LY6tZyIE0lOd36lJS8/VpNeQNhuUyPx1k7Ksqj33t+Qj5QX9YFr/cxVceFgu86wC
9t1usNVKsp/qkUgVqEjcwyR5fnMKBomFbihfagVy0T0i978szsPIfA3HuweBMB3i
lJ0+xz4wqPAvp74oKClLHZe3AgMBAAGjZjBkMA4GA1UdDwEB/wQEAwIBBjASBgNV
HRMBAf8ECDAGAQH/AgEAMB0GA1UdDgQWBBSkYLnG9HjeTVhNx4AuAL2rRYwMozAf
BgNVHSMEGDAWgBS+WIGy32rQULok0Inlmc6H//ns4zANBgkqhkiG9w0BAQUFAAOC
AQEAQqc1N6P4wW1ig7FMDjthqEFIMELvoAb8F6/ui68rlwMGgOEb/EI5lUDfI4iX
O7e9t3j/fVKNuwgkk6e1iCvCnEUkwO+E5m5LsxP6NkQI2gSTn2qAx+vUinrhXilG
4Dubc4AR7fuBmcpnjWVGaOk4pWgYtN+ZKBHwzXAFFvw8w9BwmcburG9h5/VPr7y2
i/BfDpIvKGGqnBSUjPCIdDw30dTUaUA1WVnHcTnIG+2R6E4ja+z4ydYf8u0zPZNM
xdaZGQ86W4Y9nI/yH4m3HgOcdDoQ4pTYcmN+9UtmXRp5O6A+s3n0LdDfS7f7fVfI
Kbs+1lYSwTQ81we09y7PC2OpHA==
-----END CERTIFICATE-----
Certificate:
    Data:
        Version: 3 (0x2)
        Serial Number: 1 (0x1)
        Signature Algorithm: sha1WithRSAEncryption
        Issuer: DC=org, DC=simple, O=Simple Inc, OU=Simple Root CA, CN=Simple Root CA
        Validity
            Not Before: Dec  7 05:44:41 2020 GMT
            Not After : Dec  7 05:44:41 2030 GMT
        Subject: DC=org, DC=simple, O=Simple Inc, OU=Simple Root CA, CN=Simple Root CA
        Subject Public Key Info:
            Public Key Algorithm: rsaEncryption
                RSA Public-Key: (2048 bit)
                Modulus:
                    00:ba:ea:8c:05:5d:97:b4:0e:9a:7c:d4:62:8a:ee:
                    ec:3d:47:98:96:b6:d8:79:fc:ab:ed:a5:c3:f3:10:
                    0e:df:60:bf:48:ce:28:4f:88:99:b4:56:70:c5:77:
                    75:3e:ca:11:3c:ab:66:91:de:08:84:b3:8d:a7:e4:
                    25:76:9c:0d:49:1b:fc:ec:f7:22:47:e4:0e:74:62:
                    09:51:3e:58:97:1b:c5:aa:71:16:3b:73:53:76:f2:
                    00:19:59:c0:0e:b6:52:68:09:e5:29:bd:27:b9:82:
                    c4:d7:71:d2:53:c8:c3:ef:33:04:3c:25:da:59:d8:
                    ea:70:41:a3:62:df:ec:e5:ca:72:87:71:82:05:a7:
                    80:c6:3f:f7:b1:d7:5b:b4:18:50:21:aa:d2:4e:76:
                    96:03:08:84:b0:0f:9d:be:5c:12:f4:1b:10:ca:14:
                    50:b3:06:b9:b4:26:e5:c9:e1:7b:5d:22:c5:00:bb:
                    29:6b:13:65:11:82:a3:d9:b0:3a:49:a5:9f:8f:61:
                    9a:06:59:93:fc:d1:a8:25:b0:a4:46:53:d4:52:5e:
                    1a:4e:ba:15:bd:3a:fc:45:cd:a2:a2:60:fe:a3:ff:
                    55:b0:51:1b:82:f6:52:fa:c4:b6:d4:a8:64:da:cd:
                    26:a6:7f:22:58:ab:ec:38:d2:9e:ae:c9:98:34:d6:
                    76:8f
                Exponent: 65537 (0x10001)
        X509v3 extensions:
            X509v3 Key Usage: critical
                Certificate Sign, CRL Sign
            X509v3 Basic Constraints: critical
                CA:TRUE
            X509v3 Subject Key Identifier: 
                BE:58:81:B2:DF:6A:D0:50:BA:24:D0:89:E5:99:CE:87:FF:F9:EC:E3
            X509v3 Authority Key Identifier: 
                keyid:BE:58:81:B2:DF:6A:D0:50:BA:24:D0:89:E5:99:CE:87:FF:F9:EC:E3

    Signature Algorithm: sha1WithRSAEncryption
         32:86:15:dc:ca:69:39:1a:c1:3c:ee:5d:c5:d7:a4:59:5c:38:
         24:39:1f:a7:dd:73:d0:8d:75:99:db:d5:57:b6:da:83:5d:86:
         f0:0a:0b:a1:69:c8:85:e6:0c:2c:90:9a:4f:1a:bb:62:28:56:
         d3:9b:d5:2b:f6:5a:ac:65:92:02:90:c3:2f:cd:38:81:0b:fc:
         c2:b9:de:bf:10:7c:a9:98:2e:a9:ad:16:92:ca:e6:71:f5:b5:
         e5:61:24:2d:be:16:87:be:8c:79:4d:95:f1:49:c2:72:80:fb:
         1b:5a:92:59:b7:c8:05:21:7b:17:f0:d1:3f:84:4a:94:65:6e:
         15:97:08:20:1e:22:ac:a9:08:6d:1e:62:9d:36:34:be:2e:95:
         b3:21:31:a7:64:d7:f9:29:21:2a:66:c9:66:d9:52:00:08:e7:
         0e:4d:cb:84:1f:d8:a8:cd:14:6d:3a:21:c7:4c:4e:a0:a1:a7:
         cd:55:ae:ee:48:4d:b2:ca:e4:8b:60:a0:e9:4e:70:2e:36:4a:
         57:97:09:8f:8b:ad:80:03:8d:97:f4:15:79:18:56:77:13:a7:
         c2:15:62:ef:21:00:56:c2:e0:ac:70:b1:52:90:47:11:85:cf:
         21:c5:ab:a7:c7:c5:2e:90:ce:ba:81:88:be:14:56:8a:4c:94:
         b7:72:a3:67
-----BEGIN CERTIFICATE-----
MIIDxjCCAq6gAwIBAgIBATANBgkqhkiG9w0BAQUFADB0MRMwEQYKCZImiZPyLGQB
GRYDb3JnMRYwFAYKCZImiZPyLGQBGRYGc2ltcGxlMRMwEQYDVQQKDApTaW1wbGUg
SW5jMRcwFQYDVQQLDA5TaW1wbGUgUm9vdCBDQTEXMBUGA1UEAwwOU2ltcGxlIFJv
b3QgQ0EwHhcNMjAxMjA3MDU0NDQxWhcNMzAxMjA3MDU0NDQxWjB0MRMwEQYKCZIm
iZPyLGQBGRYDb3JnMRYwFAYKCZImiZPyLGQBGRYGc2ltcGxlMRMwEQYDVQQKDApT
aW1wbGUgSW5jMRcwFQYDVQQLDA5TaW1wbGUgUm9vdCBDQTEXMBUGA1UEAwwOU2lt
cGxlIFJvb3QgQ0EwggEiMA0GCSqGSIb3DQEBAQUAA4IBDwAwggEKAoIBAQC66owF
XZe0Dpp81GKK7uw9R5iWtth5/KvtpcPzEA7fYL9IzihPiJm0VnDFd3U+yhE8q2aR
3giEs42n5CV2nA1JG/zs9yJH5A50YglRPliXG8WqcRY7c1N28gAZWcAOtlJoCeUp
vSe5gsTXcdJTyMPvMwQ8JdpZ2OpwQaNi3+zlynKHcYIFp4DGP/ex11u0GFAhqtJO
dpYDCISwD52+XBL0GxDKFFCzBrm0JuXJ4XtdIsUAuylrE2URgqPZsDpJpZ+PYZoG
WZP80aglsKRGU9RSXhpOuhW9OvxFzaKiYP6j/1WwURuC9lL6xLbUqGTazSamfyJY
q+w40p6uyZg01naPAgMBAAGjYzBhMA4GA1UdDwEB/wQEAwIBBjAPBgNVHRMBAf8E
BTADAQH/MB0GA1UdDgQWBBS+WIGy32rQULok0Inlmc6H//ns4zAfBgNVHSMEGDAW
gBS+WIGy32rQULok0Inlmc6H//ns4zANBgkqhkiG9w0BAQUFAAOCAQEAMoYV3Mpp
ORrBPO5dxdekWVw4JDkfp91z0I11mdvVV7bag12G8AoLoWnIheYMLJCaTxq7YihW
05vVK/ZarGWSApDDL804gQv8wrnevxB8qZguqa0WksrmcfW15WEkLb4Wh76MeU2V
8UnCcoD7G1qSWbfIBSF7F/DRP4RKlGVuFZcIIB4irKkIbR5inTY0vi6VsyExp2TX
+SkhKmbJZtlSAAjnDk3LhB/YqM0UbTohx0xOoKGnzVWu7khNssrki2Cg6U5wLjZK
V5cJj4utgAONl/QVeRhWdxOnwhVi7yEAVsLgrHCxUpBHEYXPIcWrp8fFLpDOuoGI
vhRWikyUt3KjZw==
-----END CERTIFICATE-----
