Certificate:
    Data:
        Version: 3 (0x2)
        Serial Number: 1 (0x1)
        Signature Algorithm: sha1WithRSAEncryption
        Issuer: DC=org, DC=simple, O=Simple Inc, OU=Simple Root CA, CN=Simple Root CA
        Validity
            Not Before: Dec  7 05:44:41 2020 GMT
            Not After : Dec  7 05:44:41 2030 GMT
        Subject: DC=org, DC=simple, O=Simple Inc, OU=Simple Root CA, CN=Simple Root CA
        Subject Public Key Info:
            Public Key Algorithm: rsaEncryption
                RSA Public-Key: (2048 bit)
                Modulus:
                    00:ba:ea:8c:05:5d:97:b4:0e:9a:7c:d4:62:8a:ee:
                    ec:3d:47:98:96:b6:d8:79:fc:ab:ed:a5:c3:f3:10:
                    0e:df:60:bf:48:ce:28:4f:88:99:b4:56:70:c5:77:
                    75:3e:ca:11:3c:ab:66:91:de:08:84:b3:8d:a7:e4:
                    25:76:9c:0d:49:1b:fc:ec:f7:22:47:e4:0e:74:62:
                    09:51:3e:58:97:1b:c5:aa:71:16:3b:73:53:76:f2:
                    00:19:59:c0:0e:b6:52:68:09:e5:29:bd:27:b9:82:
                    c4:d7:71:d2:53:c8:c3:ef:33:04:3c:25:da:59:d8:
                    ea:70:41:a3:62:df:ec:e5:ca:72:87:71:82:05:a7:
                    80:c6:3f:f7:b1:d7:5b:b4:18:50:21:aa:d2:4e:76:
                    96:03:08:84:b0:0f:9d:be:5c:12:f4:1b:10:ca:14:
                    50:b3:06:b9:b4:26:e5:c9:e1:7b:5d:22:c5:00:bb:
                    29:6b:13:65:11:82:a3:d9:b0:3a:49:a5:9f:8f:61:
                    9a:06:59:93:fc:d1:a8:25:b0:a4:46:53:d4:52:5e:
                    1a:4e:ba:15:bd:3a:fc:45:cd:a2:a2:60:fe:a3:ff:
                    55:b0:51:1b:82:f6:52:fa:c4:b6:d4:a8:64:da:cd:
                    26:a6:7f:22:58:ab:ec:38:d2:9e:ae:c9:98:34:d6:
                    76:8f
                Exponent: 65537 (0x10001)
        X509v3 extensions:
            X509v3 Key Usage: critical
                Certificate Sign, CRL Sign
            X509v3 Basic Constraints: critical
                CA:TRUE
            X509v3 Subject Key Identifier: 
                BE:58:81:B2:DF:6A:D0:50:BA:24:D0:89:E5:99:CE:87:FF:F9:EC:E3
            X509v3 Authority Key Identifier: 
                keyid:BE:58:81:B2:DF:6A:D0:50:BA:24:D0:89:E5:99:CE:87:FF:F9:EC:E3

    Signature Algorithm: sha1WithRSAEncryption
         32:86:15:dc:ca:69:39:1a:c1:3c:ee:5d:c5:d7:a4:59:5c:38:
         24:39:1f:a7:dd:73:d0:8d:75:99:db:d5:57:b6:da:83:5d:86:
         f0:0a:0b:a1:69:c8:85:e6:0c:2c:90:9a:4f:1a:bb:62:28:56:
         d3:9b:d5:2b:f6:5a:ac:65:92:02:90:c3:2f:cd:38:81:0b:fc:
         c2:b9:de:bf:10:7c:a9:98:2e:a9:ad:16:92:ca:e6:71:f5:b5:
         e5:61:24:2d:be:16:87:be:8c:79:4d:95:f1:49:c2:72:80:fb:
         1b:5a:92:59:b7:c8:05:21:7b:17:f0:d1:3f:84:4a:94:65:6e:
         15:97:08:20:1e:22:ac:a9:08:6d:1e:62:9d:36:34:be:2e:95:
         b3:21:31:a7:64:d7:f9:29:21:2a:66:c9:66:d9:52:00:08:e7:
         0e:4d:cb:84:1f:d8:a8:cd:14:6d:3a:21:c7:4c:4e:a0:a1:a7:
         cd:55:ae:ee:48:4d:b2:ca:e4:8b:60:a0:e9:4e:70:2e:36:4a:
         57:97:09:8f:8b:ad:80:03:8d:97:f4:15:79:18:56:77:13:a7:
         c2:15:62:ef:21:00:56:c2:e0:ac:70:b1:52:90:47:11:85:cf:
         21:c5:ab:a7:c7:c5:2e:90:ce:ba:81:88:be:14:56:8a:4c:94:
         b7:72:a3:67
-----BEGIN CERTIFICATE-----
MIIDxjCCAq6gAwIBAgIBATANBgkqhkiG9w0BAQUFADB0MRMwEQYKCZImiZPyLGQB
GRYDb3JnMRYwFAYKCZImiZPyLGQBGRYGc2ltcGxlMRMwEQYDVQQKDApTaW1wbGUg
SW5jMRcwFQYDVQQLDA5TaW1wbGUgUm9vdCBDQTEXMBUGA1UEAwwOU2ltcGxlIFJv
b3QgQ0EwHhcNMjAxMjA3MDU0NDQxWhcNMzAxMjA3MDU0NDQxWjB0MRMwEQYKCZIm
iZPyLGQBGRYDb3JnMRYwFAYKCZImiZPyLGQBGRYGc2ltcGxlMRMwEQYDVQQKDApT
aW1wbGUgSW5jMRcwFQYDVQQLDA5TaW1wbGUgUm9vdCBDQTEXMBUGA1UEAwwOU2lt
cGxlIFJvb3QgQ0EwggEiMA0GCSqGSIb3DQEBAQUAA4IBDwAwggEKAoIBAQC66owF
XZe0Dpp81GKK7uw9R5iWtth5/KvtpcPzEA7fYL9IzihPiJm0VnDFd3U+yhE8q2aR
3giEs42n5CV2nA1JG/zs9yJH5A50YglRPliXG8WqcRY7c1N28gAZWcAOtlJoCeUp
vSe5gsTXcdJTyMPvMwQ8JdpZ2OpwQaNi3+zlynKHcYIFp4DGP/ex11u0GFAhqtJO
dpYDCISwD52+XBL0GxDKFFCzBrm0JuXJ4XtdIsUAuylrE2URgqPZsDpJpZ+PYZoG
WZP80aglsKRGU9RSXhpOuhW9OvxFzaKiYP6j/1WwURuC9lL6xLbUqGTazSamfyJY
q+w40p6uyZg01naPAgMBAAGjYzBhMA4GA1UdDwEB/wQEAwIBBjAPBgNVHRMBAf8E
BTADAQH/MB0GA1UdDgQWBBS+WIGy32rQULok0Inlmc6H//ns4zAfBgNVHSMEGDAW
gBS+WIGy32rQULok0Inlmc6H//ns4zANBgkqhkiG9w0BAQUFAAOCAQEAMoYV3Mpp
ORrBPO5dxdekWVw4JDkfp91z0I11mdvVV7bag12G8AoLoWnIheYMLJCaTxq7YihW
05vVK/ZarGWSApDDL804gQv8wrnevxB8qZguqa0WksrmcfW15WEkLb4Wh76MeU2V
8UnCcoD7G1qSWbfIBSF7F/DRP4RKlGVuFZcIIB4irKkIbR5inTY0vi6VsyExp2TX
+SkhKmbJZtlSAAjnDk3LhB/YqM0UbTohx0xOoKGnzVWu7khNssrki2Cg6U5wLjZK
V5cJj4utgAONl/QVeRhWdxOnwhVi7yEAVsLgrHCxUpBHEYXPIcWrp8fFLpDOuoGI
vhRWikyUt3KjZw==
-----END CERTIFICATE-----
